target datalayout = "e-m:e-p270:32:32-p271:32:32-p272:64:64-i64:64-i128:128-f80:128-n8:16:32:64-S128"
target triple = "x86_64-pc-linux-gnu"

%class.rational = type { %class.mpq }
%class.mpq = type { %class.mpz, %class.mpz }
%class.mpz = type { i32, i8, ptr }
%class.symbol = type { ptr }
%"class.datalog::tr_infrastructure<datalog::relation_traits>::plugin_object" = type { ptr, i32, %class.symbol, ptr }
%class.expr = type { %class.ast }
%class.ast = type { i32, i32, i32, i32 }
%class.app = type { %class.expr, ptr, i32, %struct.app_flags, [0 x ptr] }
%struct.app_flags = type <{ i16, i8, i8 }>
%class.decl = type { %class.ast, %class.symbol, ptr }
%class.decl_info = type <{ i32, i32, %class.vector.74, i8, [7 x i8] }>
%class.vector.74 = type { ptr }

@_ZN8rational13g_mpq_managerE = external global ptr, align 8

; Function Attrs: mustprogress nounwind uwtable
define linkonce_odr hidden noundef zeroext i1 @_ZNK9decl_info10is_decl_ofEii(ptr noundef nonnull align 8 dereferenceable(17) %0, i32 noundef %1, i32 noundef %2) #7 comdat align 2 {
  %4 = alloca ptr, align 8
  %5 = alloca i32, align 4
  %6 = alloca i32, align 4
  store ptr %0, ptr %4, align 8, !tbaa !275
  store i32 %1, ptr %5, align 4, !tbaa !33
  store i32 %2, ptr %6, align 4, !tbaa !33
  %7 = load ptr, ptr %4, align 8
  %8 = getelementptr inbounds nuw %class.decl_info, ptr %7, i32 0, i32 0
  %9 = load i32, ptr %8, align 8, !tbaa !276
  %10 = load i32, ptr %5, align 4, !tbaa !33
  %11 = icmp eq i32 %9, %10
  br i1 %11, label %12, label %17

12:                                               ; preds = %3
  %13 = load i32, ptr %6, align 4, !tbaa !33
  %14 = getelementptr inbounds nuw %class.decl_info, ptr %7, i32 0, i32 1
  %15 = load i32, ptr %14, align 4, !tbaa !280
  %16 = icmp eq i32 %13, %15
  br label %17

17:                                               ; preds = %12, %3
  %18 = phi i1 [ false, %3 ], [ %16, %12 ]
  ret i1 %18
}

; Function Attrs: mustprogress uwtable
define linkonce_odr hidden void @_ZN11mpz_managerILb1EE3delER3mpz(ptr noundef nonnull align 8 dereferenceable(600) %0, ptr noundef nonnull align 8 dereferenceable(16) %1) #4 comdat align 2 {
  %3 = alloca ptr, align 8
  %4 = alloca ptr, align 8
  store ptr %0, ptr %3, align 8, !tbaa !386
  store ptr %1, ptr %4, align 8, !tbaa !382
  %5 = load ptr, ptr %3, align 8
  %6 = load ptr, ptr %4, align 8, !tbaa !382
  call void @_ZN11mpz_managerILb1EE3delEPS0_R3mpz(ptr noundef %5, ptr noundef nonnull align 8 dereferenceable(16) %6)
  ret void
}

; Function Attrs: mustprogress uwtable
define linkonce_odr hidden noundef zeroext i1 @_ZNK4decl10is_decl_ofEii(ptr noundef nonnull align 8 dereferenceable(32) %0, i32 noundef %1, i32 noundef %2) #4 comdat align 2 {
  %4 = alloca ptr, align 8
  %5 = alloca i32, align 4
  %6 = alloca i32, align 4
  store ptr %0, ptr %4, align 8, !tbaa !270
  store i32 %1, ptr %5, align 4, !tbaa !33
  store i32 %2, ptr %6, align 4, !tbaa !33
  %7 = load ptr, ptr %4, align 8
  %8 = getelementptr inbounds nuw %class.decl, ptr %7, i32 0, i32 2
  %9 = load ptr, ptr %8, align 8, !tbaa !272
  %10 = icmp ne ptr %9, null
  br i1 %10, label %11, label %17

11:                                               ; preds = %3
  %12 = getelementptr inbounds nuw %class.decl, ptr %7, i32 0, i32 2
  %13 = load ptr, ptr %12, align 8, !tbaa !272
  %14 = load i32, ptr %5, align 4, !tbaa !33
  %15 = load i32, ptr %6, align 4, !tbaa !33
  %16 = call noundef zeroext i1 @_ZNK9decl_info10is_decl_ofEii(ptr noundef nonnull align 8 dereferenceable(17) %13, i32 noundef %14, i32 noundef %15)
  br label %17

17:                                               ; preds = %11, %3
  %18 = phi i1 [ false, %3 ], [ %16, %11 ]
  ret i1 %18
}

; Function Attrs: mustprogress nounwind uwtable
define linkonce_odr hidden void @_ZN3mpz3setEi(ptr noundef nonnull align 8 dereferenceable(16) %0, i32 noundef %1) #7 comdat align 2 {
  %3 = alloca ptr, align 8
  %4 = alloca i32, align 4
  store ptr %0, ptr %3, align 8, !tbaa !382
  store i32 %1, ptr %4, align 4, !tbaa !33
  %5 = load ptr, ptr %3, align 8
  %6 = load i32, ptr %4, align 4, !tbaa !33
  %7 = getelementptr inbounds nuw %class.mpz, ptr %5, i32 0, i32 0
  store i32 %6, ptr %7, align 8, !tbaa !384
  %8 = getelementptr inbounds nuw %class.mpz, ptr %5, i32 0, i32 1
  %9 = load i8, ptr %8, align 4
  %10 = and i8 %9, -2
  %11 = or i8 %10, 0
  store i8 %11, ptr %8, align 4
  ret void
}

; Function Attrs: mustprogress uwtable
define linkonce_odr hidden void @_ZN11mpq_managerILb1EE3delER3mpz(ptr noundef nonnull align 8 dereferenceable(728) %0, ptr noundef nonnull align 8 dereferenceable(16) %1) #4 comdat align 2 {
  %3 = alloca ptr, align 8
  %4 = alloca ptr, align 8
  store ptr %0, ptr %3, align 8, !tbaa !147
  store ptr %1, ptr %4, align 8, !tbaa !382
  %5 = load ptr, ptr %3, align 8
  %6 = load ptr, ptr %4, align 8, !tbaa !382
  call void @_ZN11mpz_managerILb1EE3delER3mpz(ptr noundef nonnull align 8 dereferenceable(600) %5, ptr noundef nonnull align 8 dereferenceable(16) %6)
  ret void
}

; Function Attrs: mustprogress uwtable
define linkonce_odr hidden noundef zeroext i1 @_ZNK3app9is_app_ofEii(ptr noundef nonnull align 8 dereferenceable(32) %0, i32 noundef %1, i32 noundef %2) #4 comdat align 2 {
  %4 = alloca ptr, align 8
  %5 = alloca i32, align 4
  %6 = alloca i32, align 4
  store ptr %0, ptr %4, align 8, !tbaa !95
  store i32 %1, ptr %5, align 4, !tbaa !33
  store i32 %2, ptr %6, align 4, !tbaa !33
  %7 = load ptr, ptr %4, align 8
  %8 = getelementptr inbounds nuw %class.app, ptr %7, i32 0, i32 1
  %9 = load ptr, ptr %8, align 8, !tbaa !601
  %10 = load i32, ptr %5, align 4, !tbaa !33
  %11 = load i32, ptr %6, align 4, !tbaa !33
  %12 = call noundef zeroext i1 @_ZNK4decl10is_decl_ofEii(ptr noundef nonnull align 8 dereferenceable(32) %9, i32 noundef %10, i32 noundef %11)
  ret i1 %12
}

; Function Attrs: inlinehint mustprogress nounwind uwtable
define linkonce_odr hidden noundef ptr @_Z6to_appPK3ast(ptr noundef %0) #6 comdat {
  %2 = alloca ptr, align 8
  store ptr %0, ptr %2, align 8, !tbaa !245
  %3 = load ptr, ptr %2, align 8, !tbaa !245
  ret ptr %3
}

; Function Attrs: mustprogress nounwind uwtable
define linkonce_odr hidden noundef i32 @_ZNK3ast8get_kindEv(ptr noundef nonnull align 4 dereferenceable(16) %0) #7 comdat align 2 {
  %2 = alloca ptr, align 8
  store ptr %0, ptr %2, align 8, !tbaa !245
  %3 = load ptr, ptr %2, align 8
  %4 = getelementptr inbounds nuw %class.ast, ptr %3, i32 0, i32 1
  %5 = load i32, ptr %4, align 4
  %6 = and i32 %5, 65535
  ret i32 %6
}

; Function Attrs: mustprogress uwtable
define linkonce_odr hidden void @_ZN11mpq_managerILb1EE17reset_denominatorER3mpq(ptr noundef nonnull align 8 dereferenceable(728) %0, ptr noundef nonnull align 8 dereferenceable(32) %1) #4 comdat align 2 {
  %3 = alloca ptr, align 8
  %4 = alloca ptr, align 8
  store ptr %0, ptr %3, align 8, !tbaa !147
  store ptr %1, ptr %4, align 8, !tbaa !380
  %5 = load ptr, ptr %3, align 8
  %6 = load ptr, ptr %4, align 8, !tbaa !380
  %7 = getelementptr inbounds nuw %class.mpq, ptr %6, i32 0, i32 1
  call void @_ZN11mpq_managerILb1EE3delER3mpz(ptr noundef nonnull align 8 dereferenceable(728) %5, ptr noundef nonnull align 8 dereferenceable(16) %7)
  %8 = load ptr, ptr %4, align 8, !tbaa !380
  %9 = getelementptr inbounds nuw %class.mpq, ptr %8, i32 0, i32 1
  call void @_ZN3mpz3setEi(ptr noundef nonnull align 8 dereferenceable(16) %9, i32 noundef 1)
  ret void
}

; Function Attrs: mustprogress uwtable
define linkonce_odr hidden void @_ZN11mpq_managerILb1EE5resetER3mpz(ptr noundef nonnull align 8 dereferenceable(728) %0, ptr noundef nonnull align 8 dereferenceable(16) %1) #4 comdat align 2 {
  %3 = alloca ptr, align 8
  %4 = alloca ptr, align 8
  store ptr %0, ptr %3, align 8, !tbaa !147
  store ptr %1, ptr %4, align 8, !tbaa !382
  %5 = load ptr, ptr %3, align 8
  %6 = load ptr, ptr %4, align 8, !tbaa !382
  call void @_ZN11mpz_managerILb1EE5resetER3mpz(ptr noundef nonnull align 8 dereferenceable(600) %5, ptr noundef nonnull align 8 dereferenceable(16) %6)
  ret void
}

; Function Attrs: inlinehint mustprogress uwtable
define linkonce_odr hidden noundef zeroext i1 @_Z9is_app_ofPK4exprii(ptr noundef %0, i32 noundef %1, i32 noundef %2) #8 comdat {
  %4 = alloca ptr, align 8
  %5 = alloca i32, align 4
  %6 = alloca i32, align 4
  store ptr %0, ptr %4, align 8, !tbaa !128
  store i32 %1, ptr %5, align 4, !tbaa !33
  store i32 %2, ptr %6, align 4, !tbaa !33
  %7 = load ptr, ptr %4, align 8, !tbaa !128
  %8 = call noundef i32 @_ZNK3ast8get_kindEv(ptr noundef nonnull align 4 dereferenceable(16) %7)
  %9 = icmp eq i32 %8, 0
  br i1 %9, label %10, label %16

10:                                               ; preds = %3
  %11 = load ptr, ptr %4, align 8, !tbaa !128
  %12 = call noundef ptr @_Z6to_appPK3ast(ptr noundef %11)
  %13 = load i32, ptr %5, align 4, !tbaa !33
  %14 = load i32, ptr %6, align 4, !tbaa !33
  %15 = call noundef zeroext i1 @_ZNK3app9is_app_ofEii(ptr noundef nonnull align 8 dereferenceable(32) %12, i32 noundef %13, i32 noundef %14)
  br label %16

16:                                               ; preds = %10, %3
  %17 = phi i1 [ false, %3 ], [ %15, %10 ]
  ret i1 %17
}

; Function Attrs: mustprogress uwtable
define linkonce_odr hidden void @_ZN11mpq_managerILb1EE5resetER3mpq(ptr noundef nonnull align 8 dereferenceable(728) %0, ptr noundef nonnull align 8 dereferenceable(32) %1) #4 comdat align 2 {
  %3 = alloca ptr, align 8
  %4 = alloca ptr, align 8
  store ptr %0, ptr %3, align 8, !tbaa !147
  store ptr %1, ptr %4, align 8, !tbaa !380
  %5 = load ptr, ptr %3, align 8
  %6 = load ptr, ptr %4, align 8, !tbaa !380
  %7 = getelementptr inbounds nuw %class.mpq, ptr %6, i32 0, i32 0
  call void @_ZN11mpq_managerILb1EE5resetER3mpz(ptr noundef nonnull align 8 dereferenceable(728) %5, ptr noundef nonnull align 8 dereferenceable(16) %7)
  %8 = load ptr, ptr %4, align 8, !tbaa !380
  call void @_ZN11mpq_managerILb1EE17reset_denominatorER3mpq(ptr noundef nonnull align 8 dereferenceable(728) %5, ptr noundef nonnull align 8 dereferenceable(32) %8)
  ret void
}

; Function Attrs: mustprogress nounwind uwtable
define linkonce_odr hidden noundef nonnull align 8 dereferenceable(728) ptr @_ZN8rational1mEv() #7 comdat align 2 {
  %1 = load ptr, ptr @_ZN8rational13g_mpq_managerE, align 8, !tbaa !147
  ret ptr %1
}

; Function Attrs: mustprogress nounwind uwtable
define linkonce_odr hidden noundef ptr @_ZNK3app7get_argEj(ptr noundef nonnull align 8 dereferenceable(32) %0, i32 noundef %1) #7 comdat align 2 {
  %3 = alloca ptr, align 8
  %4 = alloca i32, align 4
  store ptr %0, ptr %3, align 8, !tbaa !95
  store i32 %1, ptr %4, align 4, !tbaa !33
  %5 = load ptr, ptr %3, align 8
  %6 = getelementptr inbounds nuw %class.app, ptr %5, i32 0, i32 4
  %7 = load i32, ptr %4, align 4, !tbaa !33
  %8 = zext i32 %7 to i64
  %9 = getelementptr inbounds nuw [0 x ptr], ptr %6, i64 0, i64 %8
  %10 = load ptr, ptr %9, align 8, !tbaa !128
  ret ptr %10
}

; Function Attrs: mustprogress uwtable
define linkonce_odr hidden noundef zeroext i1 @_ZNK11ast_manager5is_eqEPK4expr(ptr noundef nonnull align 8 dereferenceable(976) %0, ptr noundef %1) #4 comdat align 2 {
  %3 = alloca ptr, align 8
  %4 = alloca ptr, align 8
  store ptr %0, ptr %3, align 8, !tbaa !126
  store ptr %1, ptr %4, align 8, !tbaa !128
  %5 = load ptr, ptr %4, align 8, !tbaa !128
  %6 = call noundef zeroext i1 @_Z9is_app_ofPK4exprii(ptr noundef %5, i32 noundef 0, i32 noundef 2)
  ret i1 %6
}

; Function Attrs: mustprogress uwtable
define linkonce_odr hidden void @_ZN8rational5resetEv(ptr noundef nonnull align 8 dereferenceable(32) %0) #4 comdat align 2 {
  %2 = alloca ptr, align 8
  store ptr %0, ptr %2, align 8, !tbaa !143
  %3 = load ptr, ptr %2, align 8
  %4 = call noundef nonnull align 8 dereferenceable(728) ptr @_ZN8rational1mEv()
  %5 = getelementptr inbounds nuw %class.rational, ptr %3, i32 0, i32 0
  call void @_ZN11mpq_managerILb1EE5resetER3mpq(ptr noundef nonnull align 8 dereferenceable(728) %4, ptr noundef nonnull align 8 dereferenceable(32) %5)
  ret void
}

; Function Attrs: mustprogress uwtable
define linkonce_odr hidden noundef nonnull align 8 dereferenceable(976) ptr @_ZNK7datalog17tr_infrastructureINS_15relation_traitsEE13plugin_object15get_ast_managerEv(ptr noundef nonnull align 8 dereferenceable(32) %0) #4 comdat align 2 {
  %2 = alloca ptr, align 8
  store ptr %0, ptr %2, align 8, !tbaa !26
  %3 = load ptr, ptr %2, align 8
  %4 = getelementptr inbounds nuw %"class.datalog::tr_infrastructure<datalog::relation_traits>::plugin_object", ptr %3, i32 0, i32 3
  %5 = load ptr, ptr %4, align 8, !tbaa !28
  %6 = call noundef nonnull align 8 dereferenceable(976) ptr @_ZN7datalog32get_ast_manager_from_rel_managerERKNS_16relation_managerE(ptr noundef nonnull align 8 dereferenceable(200) %5)
  ret ptr %6
}

; Function Attrs: mustprogress uwtable
define hidden noundef zeroext i1 @_ZNK7datalog24interval_relation_plugin5is_eqEP3appRjR8rationalS3_(ptr noundef nonnull align 8 dereferenceable(240) %0, ptr noundef %1, ptr noundef nonnull align 4 dereferenceable(4) %2, ptr noundef nonnull align 8 dereferenceable(32) %3, ptr noundef nonnull align 4 dereferenceable(4) %4) #4 align 2 {
  %6 = alloca i1, align 1
  %7 = alloca ptr, align 8
  %8 = alloca ptr, align 8
  %9 = alloca ptr, align 8
  %10 = alloca ptr, align 8
  %11 = alloca ptr, align 8
  %12 = alloca ptr, align 8
  %13 = alloca i32, align 4
  store ptr %0, ptr %7, align 8, !tbaa !3
  store ptr %1, ptr %8, align 8, !tbaa !95
  store ptr %2, ptr %9, align 8, !tbaa !50
  store ptr %3, ptr %10, align 8, !tbaa !143
  store ptr %4, ptr %11, align 8, !tbaa !50
  %14 = load ptr, ptr %7, align 8
  call void @llvm.lifetime.start.p0(i64 8, ptr %12) #3
  %15 = call noundef nonnull align 8 dereferenceable(976) ptr @_ZNK7datalog17tr_infrastructureINS_15relation_traitsEE13plugin_object15get_ast_managerEv(ptr noundef nonnull align 8 dereferenceable(32) %14)
  store ptr %15, ptr %12, align 8, !tbaa !126
  %16 = load ptr, ptr %10, align 8, !tbaa !143
  call void @_ZN8rational5resetEv(ptr noundef nonnull align 8 dereferenceable(32) %16)
  %17 = load ptr, ptr %9, align 8, !tbaa !50
  store i32 -1, ptr %17, align 4, !tbaa !33
  %18 = load ptr, ptr %11, align 8, !tbaa !50
  store i32 -1, ptr %18, align 4, !tbaa !33
  %19 = load ptr, ptr %12, align 8, !tbaa !126
  %20 = load ptr, ptr %8, align 8, !tbaa !95
  %21 = call noundef zeroext i1 @_ZNK11ast_manager5is_eqEPK4expr(ptr noundef nonnull align 8 dereferenceable(976) %19, ptr noundef %20)
  br i1 %21, label %22, label %48

22:                                               ; preds = %5
  %23 = load ptr, ptr %8, align 8, !tbaa !95
  %24 = call noundef ptr @_ZNK3app7get_argEj(ptr noundef nonnull align 8 dereferenceable(32) %23, i32 noundef 0)
  %25 = load ptr, ptr %11, align 8, !tbaa !50
  %26 = load ptr, ptr %9, align 8, !tbaa !50
  %27 = load ptr, ptr %10, align 8, !tbaa !143
  %28 = call noundef zeroext i1 @_ZNK7datalog24interval_relation_plugin9is_linearEP4exprRjS3_R8rationalb(ptr noundef nonnull align 8 dereferenceable(240) %14, ptr noundef %24, ptr noundef nonnull align 4 dereferenceable(4) %25, ptr noundef nonnull align 4 dereferenceable(4) %26, ptr noundef nonnull align 8 dereferenceable(32) %27, i1 noundef zeroext false)
  br i1 %28, label %30, label %29

29:                                               ; preds = %22
  store i1 false, ptr %6, align 1
  store i32 1, ptr %13, align 4
  br label %49

30:                                               ; preds = %22
  %31 = load ptr, ptr %8, align 8, !tbaa !95
  %32 = call noundef ptr @_ZNK3app7get_argEj(ptr noundef nonnull align 8 dereferenceable(32) %31, i32 noundef 1)
  %33 = load ptr, ptr %11, align 8, !tbaa !50
  %34 = load ptr, ptr %9, align 8, !tbaa !50
  %35 = load ptr, ptr %10, align 8, !tbaa !143
  %36 = call noundef zeroext i1 @_ZNK7datalog24interval_relation_plugin9is_linearEP4exprRjS3_R8rationalb(ptr noundef nonnull align 8 dereferenceable(240) %14, ptr noundef %32, ptr noundef nonnull align 4 dereferenceable(4) %33, ptr noundef nonnull align 4 dereferenceable(4) %34, ptr noundef nonnull align 8 dereferenceable(32) %35, i1 noundef zeroext true)
  br i1 %36, label %38, label %37

37:                                               ; preds = %30
  store i1 false, ptr %6, align 1
  store i32 1, ptr %13, align 4
  br label %49

38:                                               ; preds = %30
  %39 = load ptr, ptr %9, align 8, !tbaa !50
  %40 = load i32, ptr %39, align 4, !tbaa !33
  %41 = icmp ne i32 %40, -1
  br i1 %41, label %46, label %42

42:                                               ; preds = %38
  %43 = load ptr, ptr %11, align 8, !tbaa !50
  %44 = load i32, ptr %43, align 4, !tbaa !33
  %45 = icmp ne i32 %44, -1
  br label %46

46:                                               ; preds = %42, %38
  %47 = phi i1 [ true, %38 ], [ %45, %42 ]
  store i1 %47, ptr %6, align 1
  store i32 1, ptr %13, align 4
  br label %49

48:                                               ; preds = %5
  store i1 false, ptr %6, align 1
  store i32 1, ptr %13, align 4
  br label %49

49:                                               ; preds = %48, %46, %37, %29
  call void @llvm.lifetime.end.p0(i64 8, ptr %12) #3
  %50 = load i1, ptr %6, align 1
  ret i1 %50
}