; Function Attrs: mustprogress uwtable
define hidden noundef zeroext i1 @_ZNK7datalog24interval_relation_plugin5is_eqEP3appRjR8rationalS3_(ptr noundef nonnull align 8 dereferenceable(240) %0, ptr noundef readonly captures(none) %1, ptr noundef nonnull align 4 dereferenceable(4) initializes((0, 4)) %2, ptr noundef nonnull align 8 dereferenceable(32) %3, ptr noundef nonnull align 4 dereferenceable(4) initializes((0, 4)) %4) local_unnamed_addr #3 align 2 {
  %6 = getelementptr inbounds nuw i8, ptr %0, i64 24
  %7 = load ptr, ptr %6, align 8, !tbaa !27
  %8 = tail call noundef nonnull align 8 dereferenceable(976) ptr @_ZN7datalog32get_ast_manager_from_rel_managerERKNS_16relation_managerE(ptr noundef nonnull align 8 dereferenceable(200) %7)
  %9 = load ptr, ptr @_ZN8rational13g_mpq_managerE, align 8, !tbaa !28
  tail call void @_ZN11mpz_managerILb1EE5resetER3mpz(ptr noundef nonnull align 8 dereferenceable(728) %9, ptr noundef nonnull align 8 dereferenceable(32) %3)
  %10 = getelementptr inbounds nuw i8, ptr %3, i64 16
  tail call void @_ZN11mpz_managerILb1EE3delEPS0_R3mpz(ptr noundef nonnull align 8 dereferenceable(728) %9, ptr noundef nonnull align 8 dereferenceable(16) %10)
  store i32 1, ptr %10, align 8, !tbaa !72
  %11 = getelementptr inbounds nuw i8, ptr %3, i64 20
  %12 = load i8, ptr %11, align 4
  %13 = and i8 %12, -2
  store i8 %13, ptr %11, align 4
  store i32 -1, ptr %2, align 4, !tbaa !33
  store i32 -1, ptr %4, align 4, !tbaa !33
  %14 = getelementptr inbounds nuw i8, ptr %1, i64 4
  %15 = load i32, ptr %14, align 4
  %16 = and i32 %15, 65535
  %17 = icmp eq i32 %16, 0
  br i1 %17, label %18, label %_ZNK11ast_manager5is_eqEPK4expr.exit.thread

18:                                               ; preds = %5
  %19 = getelementptr inbounds nuw i8, ptr %1, i64 16
  %20 = load ptr, ptr %19, align 8, !tbaa !439
  %21 = getelementptr inbounds nuw i8, ptr %20, i64 24
  %22 = load ptr, ptr %21, align 8, !tbaa !36
  %.not.i.i.i.i = icmp eq ptr %22, null
  br i1 %.not.i.i.i.i, label %_ZNK11ast_manager5is_eqEPK4expr.exit.thread, label %_ZNK11ast_manager5is_eqEPK4expr.exit

_ZNK11ast_manager5is_eqEPK4expr.exit:             ; preds = %18
  %23 = load i32, ptr %22, align 8, !tbaa !40
  %24 = icmp eq i32 %23, 0
  %25 = getelementptr inbounds nuw i8, ptr %22, i64 4
  %26 = load i32, ptr %25, align 4
  %27 = icmp eq i32 %26, 2
  %28 = select i1 %24, i1 %27, i1 false
  br i1 %28, label %29, label %_ZNK11ast_manager5is_eqEPK4expr.exit.thread

29:                                               ; preds = %_ZNK11ast_manager5is_eqEPK4expr.exit
  %30 = getelementptr inbounds nuw i8, ptr %1, i64 32
  %31 = load ptr, ptr %30, align 8, !tbaa !428
  %32 = tail call noundef zeroext i1 @_ZNK7datalog24interval_relation_plugin9is_linearEP4exprRjS3_R8rationalb(ptr noundef nonnull align 8 dereferenceable(240) %0, ptr noundef %31, ptr noundef nonnull align 4 dereferenceable(4) %4, ptr noundef nonnull align 4 dereferenceable(4) %2, ptr noundef nonnull align 8 dereferenceable(32) %3, i1 noundef zeroext false)
  br i1 %32, label %33, label %_ZNK11ast_manager5is_eqEPK4expr.exit.thread

33:                                               ; preds = %29
  %34 = getelementptr inbounds nuw i8, ptr %1, i64 40
  %35 = load ptr, ptr %34, align 8, !tbaa !428
  %36 = tail call noundef zeroext i1 @_ZNK7datalog24interval_relation_plugin9is_linearEP4exprRjS3_R8rationalb(ptr noundef nonnull align 8 dereferenceable(240) %0, ptr noundef %35, ptr noundef nonnull align 4 dereferenceable(4) %4, ptr noundef nonnull align 4 dereferenceable(4) %2, ptr noundef nonnull align 8 dereferenceable(32) %3, i1 noundef zeroext true)
  br i1 %36, label %37, label %_ZNK11ast_manager5is_eqEPK4expr.exit.thread

37:                                               ; preds = %33
  %38 = load i32, ptr %2, align 4, !tbaa !33
  %.not = icmp ne i32 %38, -1
  %39 = load i32, ptr %4, align 4
  %40 = icmp ne i32 %39, -1
  %41 = select i1 %.not, i1 true, i1 %40
  br label %_ZNK11ast_manager5is_eqEPK4expr.exit.thread

_ZNK11ast_manager5is_eqEPK4expr.exit.thread:      ; preds = %18, %5, %_ZNK11ast_manager5is_eqEPK4expr.exit, %33, %29, %37
  %.0 = phi i1 [ %41, %37 ], [ false, %29 ], [ false, %33 ], [ false, %_ZNK11ast_manager5is_eqEPK4expr.exit ], [ false, %5 ], [ false, %18 ]
  ret i1 %.0
}